
fibonacci.elf      檔案格式 elf32-littleriscv


.text 區段的反組譯：

00010094 <_start>:
   10094:	00001137          	lui	sp,0x1
   10098:	00001297          	auipc	t0,0x1
   1009c:	08c28293          	addi	t0,t0,140 # 11124 <__DATA_BEGIN__>
   100a0:	0002a283          	lw	t0,0(t0)
   100a4:	00000313          	addi	t1,zero,0
   100a8:	80418393          	addi	t2,gp,-2044 # 11128 <results>

000100ac <fib_loop>:
   100ac:	00535e63          	bge	t1,t0,100c8 <exit>
   100b0:	00030513          	addi	a0,t1,0
   100b4:	020000ef          	jal	ra,100d4 <fib>
   100b8:	00a3a023          	sw	a0,0(t2)
   100bc:	00438393          	addi	t2,t2,4
   100c0:	00130313          	addi	t1,t1,1
   100c4:	fe9ff06f          	jal	zero,100ac <fib_loop>

000100c8 <exit>:
   100c8:	05d00893          	addi	a7,zero,93
   100cc:	00000513          	addi	a0,zero,0
   100d0:	00000073          	ecall

000100d4 <fib>:
   100d4:	ff010113          	addi	sp,sp,-16 # ff0 <_start-0xf0a4>
   100d8:	00112623          	sw	ra,12(sp)
   100dc:	00812423          	sw	s0,8(sp)
   100e0:	00912223          	sw	s1,4(sp)
   100e4:	00050413          	addi	s0,a0,0
   100e8:	00200293          	addi	t0,zero,2
   100ec:	02544063          	blt	s0,t0,1010c <fib_base>
   100f0:	fff40513          	addi	a0,s0,-1
   100f4:	fe1ff0ef          	jal	ra,100d4 <fib>
   100f8:	00050493          	addi	s1,a0,0
   100fc:	ffe40513          	addi	a0,s0,-2
   10100:	fd5ff0ef          	jal	ra,100d4 <fib>
   10104:	00950533          	add	a0,a0,s1
   10108:	0080006f          	jal	zero,10110 <fib_done>

0001010c <fib_base>:
   1010c:	00040513          	addi	a0,s0,0

00010110 <fib_done>:
   10110:	00412483          	lw	s1,4(sp)
   10114:	00812403          	lw	s0,8(sp)
   10118:	00c12083          	lw	ra,12(sp)
   1011c:	01010113          	addi	sp,sp,16
   10120:	00008067          	jalr	zero,0(ra)

fibonacci.elf      檔案格式 elf32-littleriscv


.text 區段的反組譯：

00010094 <_start>:
   10094:	00001137          	lui	sp,0x1
   10098:	00001297          	auipc	t0,0x1
   1009c:	08c28293          	addi	t0,t0,140 # 11124 <__DATA_BEGIN__>
   100a0:	0002a283          	lw	t0,0(t0)
   100a4:	00000313          	addi	t1,zero,0
   100a8:	80418393          	addi	t2,gp,-2044 # 11128 <results>

000100ac <fib_loop>:
   100ac:	00535e63          	bge	t1,t0,100c8 <exit>
   100b0:	00030513          	addi	a0,t1,0
   100b4:	020000ef          	jal	ra,100d4 <fib>
   100b8:	00a3a023          	sw	a0,0(t2)
   100bc:	00438393          	addi	t2,t2,4
   100c0:	00130313          	addi	t1,t1,1
   100c4:	fe9ff06f          	jal	zero,100ac <fib_loop>

000100c8 <exit>:
   100c8:	05d00893          	addi	a7,zero,93
   100cc:	00000513          	addi	a0,zero,0
   100d0:	00000073          	ecall

000100d4 <fib>:
   100d4:	ff010113          	addi	sp,sp,-16 # ff0 <_start-0xf0a4>
   100d8:	00112623          	sw	ra,12(sp)
   100dc:	00812423          	sw	s0,8(sp)
   100e0:	00912223          	sw	s1,4(sp)
   100e4:	00050413          	addi	s0,a0,0
   100e8:	00200293          	addi	t0,zero,2
   100ec:	02544063          	blt	s0,t0,1010c <fib_base>
   100f0:	fff40513          	addi	a0,s0,-1
   100f4:	fe1ff0ef          	jal	ra,100d4 <fib>
   100f8:	00050493          	addi	s1,a0,0
   100fc:	ffe40513          	addi	a0,s0,-2
   10100:	fd5ff0ef          	jal	ra,100d4 <fib>
   10104:	00950533          	add	a0,a0,s1
   10108:	0080006f          	jal	zero,10110 <fib_done>

0001010c <fib_base>:
   1010c:	00040513          	addi	a0,s0,0

00010110 <fib_done>:
   10110:	00412483          	lw	s1,4(sp)
   10114:	00812403          	lw	s0,8(sp)
   10118:	00c12083          	lw	ra,12(sp)
   1011c:	01010113          	addi	sp,sp,16
   10120:	00008067          	jalr	zero,0(ra)

fibonacci.elf      檔案格式 elf32-littleriscv


.text 區段的反組譯：

00010094 <_start>:
   10094:	00001137          	lui	sp,0x1
   10098:	00001297          	auipc	t0,0x1
   1009c:	08c28293          	addi	t0,t0,140 # 11124 <__DATA_BEGIN__>
   100a0:	0002a283          	lw	t0,0(t0)
   100a4:	00000313          	addi	t1,zero,0
   100a8:	80418393          	addi	t2,gp,-2044 # 11128 <results>

000100ac <fib_loop>:
   100ac:	00535e63          	bge	t1,t0,100c8 <exit>
   100b0:	00030513          	addi	a0,t1,0
   100b4:	020000ef          	jal	ra,100d4 <fib>
   100b8:	00a3a023          	sw	a0,0(t2)
   100bc:	00438393          	addi	t2,t2,4
   100c0:	00130313          	addi	t1,t1,1
   100c4:	fe9ff06f          	jal	zero,100ac <fib_loop>

000100c8 <exit>:
   100c8:	05d00893          	addi	a7,zero,93
   100cc:	00000513          	addi	a0,zero,0
   100d0:	00000073          	ecall

000100d4 <fib>:
   100d4:	ff010113          	addi	sp,sp,-16 # ff0 <_start-0xf0a4>
   100d8:	00112623          	sw	ra,12(sp)
   100dc:	00812423          	sw	s0,8(sp)
   100e0:	00912223          	sw	s1,4(sp)
   100e4:	00050413          	addi	s0,a0,0
   100e8:	00200293          	addi	t0,zero,2
   100ec:	02544063          	blt	s0,t0,1010c <fib_base>
   100f0:	fff40513          	addi	a0,s0,-1
   100f4:	fe1ff0ef          	jal	ra,100d4 <fib>
   100f8:	00050493          	addi	s1,a0,0
   100fc:	ffe40513          	addi	a0,s0,-2
   10100:	fd5ff0ef          	jal	ra,100d4 <fib>
   10104:	00950533          	add	a0,a0,s1
   10108:	0080006f          	jal	zero,10110 <fib_done>

0001010c <fib_base>:
   1010c:	00040513          	addi	a0,s0,0

00010110 <fib_done>:
   10110:	00412483          	lw	s1,4(sp)
   10114:	00812403          	lw	s0,8(sp)
   10118:	00c12083          	lw	ra,12(sp)
   1011c:	01010113          	addi	sp,sp,16
   10120:	00008067          	jalr	zero,0(ra)

fibonacci.elf      檔案格式 elf32-littleriscv


.text 區段的反組譯：

00010094 <_start>:
   10094:	00001137          	lui	sp,0x1
   10098:	00010113          	addi	sp,sp,0 # 1000 <_start-0xf094>
   1009c:	00001297          	auipc	t0,0x1
   100a0:	08c28293          	addi	t0,t0,140 # 11128 <__DATA_BEGIN__>
   100a4:	0002a283          	lw	t0,0(t0)
   100a8:	00000313          	addi	t1,zero,0
   100ac:	80418393          	addi	t2,gp,-2044 # 1112c <results>

000100b0 <fib_loop>:
   100b0:	00535e63          	bge	t1,t0,100cc <exit>
   100b4:	00030513          	addi	a0,t1,0
   100b8:	020000ef          	jal	ra,100d8 <fib>
   100bc:	00a3a023          	sw	a0,0(t2)
   100c0:	00438393          	addi	t2,t2,4
   100c4:	00130313          	addi	t1,t1,1
   100c8:	fe9ff06f          	jal	zero,100b0 <fib_loop>

000100cc <exit>:
   100cc:	05d00893          	addi	a7,zero,93
   100d0:	00000513          	addi	a0,zero,0
   100d4:	00000073          	ecall

000100d8 <fib>:
   100d8:	ff010113          	addi	sp,sp,-16
   100dc:	00112623          	sw	ra,12(sp)
   100e0:	00812423          	sw	s0,8(sp)
   100e4:	00912223          	sw	s1,4(sp)
   100e8:	00050413          	addi	s0,a0,0
   100ec:	00200293          	addi	t0,zero,2
   100f0:	02544063          	blt	s0,t0,10110 <fib_base>
   100f4:	fff40513          	addi	a0,s0,-1
   100f8:	fe1ff0ef          	jal	ra,100d8 <fib>
   100fc:	00050493          	addi	s1,a0,0
   10100:	ffe40513          	addi	a0,s0,-2
   10104:	fd5ff0ef          	jal	ra,100d8 <fib>
   10108:	00950533          	add	a0,a0,s1
   1010c:	0080006f          	jal	zero,10114 <fib_done>

00010110 <fib_base>:
   10110:	00040513          	addi	a0,s0,0

00010114 <fib_done>:
   10114:	00412483          	lw	s1,4(sp)
   10118:	00812403          	lw	s0,8(sp)
   1011c:	00c12083          	lw	ra,12(sp)
   10120:	01010113          	addi	sp,sp,16
   10124:	00008067          	jalr	zero,0(ra)

fibonacci.elf      檔案格式 elf32-littleriscv


.text 區段的反組譯：

00010094 <_start>:
   10094:	00001137          	lui	sp,0x1
   10098:	00001297          	auipc	t0,0x1
   1009c:	08c28293          	addi	t0,t0,140 # 11124 <__DATA_BEGIN__>
   100a0:	0002a283          	lw	t0,0(t0)
   100a4:	00000313          	addi	t1,zero,0
   100a8:	80418393          	addi	t2,gp,-2044 # 11128 <results>

000100ac <fib_loop>:
   100ac:	00535e63          	bge	t1,t0,100c8 <exit>
   100b0:	00030513          	addi	a0,t1,0
   100b4:	020000ef          	jal	ra,100d4 <fib>
   100b8:	00a3a023          	sw	a0,0(t2)
   100bc:	00438393          	addi	t2,t2,4
   100c0:	00130313          	addi	t1,t1,1
   100c4:	fe9ff06f          	jal	zero,100ac <fib_loop>

000100c8 <exit>:
   100c8:	05d00893          	addi	a7,zero,93
   100cc:	00000513          	addi	a0,zero,0
   100d0:	00000073          	ecall

000100d4 <fib>:
   100d4:	ff010113          	addi	sp,sp,-16 # ff0 <_start-0xf0a4>
   100d8:	00112623          	sw	ra,12(sp)
   100dc:	00812423          	sw	s0,8(sp)
   100e0:	00912223          	sw	s1,4(sp)
   100e4:	00050413          	addi	s0,a0,0
   100e8:	00200293          	addi	t0,zero,2
   100ec:	02544063          	blt	s0,t0,1010c <fib_base>
   100f0:	fff40513          	addi	a0,s0,-1
   100f4:	fe1ff0ef          	jal	ra,100d4 <fib>
   100f8:	00050493          	addi	s1,a0,0
   100fc:	ffe40513          	addi	a0,s0,-2
   10100:	fd5ff0ef          	jal	ra,100d4 <fib>
   10104:	00950533          	add	a0,a0,s1
   10108:	0080006f          	jal	zero,10110 <fib_done>

0001010c <fib_base>:
   1010c:	00040513          	addi	a0,s0,0

00010110 <fib_done>:
   10110:	00412483          	lw	s1,4(sp)
   10114:	00812403          	lw	s0,8(sp)
   10118:	00c12083          	lw	ra,12(sp)
   1011c:	01010113          	addi	sp,sp,16
   10120:	00008067          	jalr	zero,0(ra)

fibonacci.elf      檔案格式 elf32-littleriscv


.text 區段的反組譯：

00010094 <_start>:
   10094:	01000137          	lui	sp,0x1000
   10098:	00001297          	auipc	t0,0x1
   1009c:	08c28293          	addi	t0,t0,140 # 11124 <__DATA_BEGIN__>
   100a0:	0002a283          	lw	t0,0(t0)
   100a4:	00000313          	addi	t1,zero,0
   100a8:	80418393          	addi	t2,gp,-2044 # 11128 <results>

000100ac <fib_loop>:
   100ac:	00535e63          	bge	t1,t0,100c8 <exit>
   100b0:	00030513          	addi	a0,t1,0
   100b4:	020000ef          	jal	ra,100d4 <fib>
   100b8:	00a3a023          	sw	a0,0(t2)
   100bc:	00438393          	addi	t2,t2,4
   100c0:	00130313          	addi	t1,t1,1
   100c4:	fe9ff06f          	jal	zero,100ac <fib_loop>

000100c8 <exit>:
   100c8:	05d00893          	addi	a7,zero,93
   100cc:	00000513          	addi	a0,zero,0
   100d0:	00000073          	ecall

000100d4 <fib>:
   100d4:	ff010113          	addi	sp,sp,-16 # fffff0 <__global_pointer$+0xfee6cc>
   100d8:	00112623          	sw	ra,12(sp)
   100dc:	00812423          	sw	s0,8(sp)
   100e0:	00912223          	sw	s1,4(sp)
   100e4:	00050413          	addi	s0,a0,0
   100e8:	00200293          	addi	t0,zero,2
   100ec:	02544063          	blt	s0,t0,1010c <fib_base>
   100f0:	fff40513          	addi	a0,s0,-1
   100f4:	fe1ff0ef          	jal	ra,100d4 <fib>
   100f8:	00050493          	addi	s1,a0,0
   100fc:	ffe40513          	addi	a0,s0,-2
   10100:	fd5ff0ef          	jal	ra,100d4 <fib>
   10104:	00950533          	add	a0,a0,s1
   10108:	0080006f          	jal	zero,10110 <fib_done>

0001010c <fib_base>:
   1010c:	00040513          	addi	a0,s0,0

00010110 <fib_done>:
   10110:	00412483          	lw	s1,4(sp)
   10114:	00812403          	lw	s0,8(sp)
   10118:	00c12083          	lw	ra,12(sp)
   1011c:	01010113          	addi	sp,sp,16
   10120:	00008067          	jalr	zero,0(ra)

fibonacci.elf      檔案格式 elf32-littleriscv


.text 區段的反組譯：

00010094 <_start>:
   10094:	01000137          	lui	sp,0x1000
   10098:	00001297          	auipc	t0,0x1
   1009c:	08c28293          	addi	t0,t0,140 # 11124 <__DATA_BEGIN__>
   100a0:	0002a283          	lw	t0,0(t0)
   100a4:	00000313          	addi	t1,zero,0
   100a8:	80418393          	addi	t2,gp,-2044 # 11128 <results>

000100ac <fib_loop>:
   100ac:	00535e63          	bge	t1,t0,100c8 <exit>
   100b0:	00030513          	addi	a0,t1,0
   100b4:	020000ef          	jal	ra,100d4 <fib>
   100b8:	00a3a023          	sw	a0,0(t2)
   100bc:	00438393          	addi	t2,t2,4
   100c0:	00130313          	addi	t1,t1,1
   100c4:	fe9ff06f          	jal	zero,100ac <fib_loop>

000100c8 <exit>:
   100c8:	05d00893          	addi	a7,zero,93
   100cc:	00000513          	addi	a0,zero,0
   100d0:	00000073          	ecall

000100d4 <fib>:
   100d4:	ff010113          	addi	sp,sp,-16 # fffff0 <__global_pointer$+0xfee6cc>
   100d8:	00112623          	sw	ra,12(sp)
   100dc:	00812423          	sw	s0,8(sp)
   100e0:	00912223          	sw	s1,4(sp)
   100e4:	00050413          	addi	s0,a0,0
   100e8:	00200293          	addi	t0,zero,2
   100ec:	02544063          	blt	s0,t0,1010c <fib_base>
   100f0:	fff40513          	addi	a0,s0,-1
   100f4:	fe1ff0ef          	jal	ra,100d4 <fib>
   100f8:	00050493          	addi	s1,a0,0
   100fc:	ffe40513          	addi	a0,s0,-2
   10100:	fd5ff0ef          	jal	ra,100d4 <fib>
   10104:	00950533          	add	a0,a0,s1
   10108:	0080006f          	jal	zero,10110 <fib_done>

0001010c <fib_base>:
   1010c:	00040513          	addi	a0,s0,0

00010110 <fib_done>:
   10110:	00412483          	lw	s1,4(sp)
   10114:	00812403          	lw	s0,8(sp)
   10118:	00c12083          	lw	ra,12(sp)
   1011c:	01010113          	addi	sp,sp,16
   10120:	00008067          	jalr	zero,0(ra)

fibonacci.elf      檔案格式 elf32-littleriscv


.text 區段的反組譯：

00010094 <_start>:
   10094:	00001137          	lui	sp,0x1
   10098:	00001297          	auipc	t0,0x1
   1009c:	06828293          	addi	t0,t0,104 # 11100 <__DATA_BEGIN__>
   100a0:	0002a283          	lw	t0,0(t0)
   100a4:	80418313          	addi	t1,gp,-2044 # 11104 <results>
   100a8:	00000413          	addi	s0,zero,0
   100ac:	00832023          	sw	s0,0(t1)
   100b0:	00100593          	addi	a1,zero,1
   100b4:	0455d063          	bge	a1,t0,100f4 <exit>
   100b8:	00430313          	addi	t1,t1,4
   100bc:	00100493          	addi	s1,zero,1
   100c0:	00932023          	sw	s1,0(t1)
   100c4:	00200613          	addi	a2,zero,2
   100c8:	02565663          	bge	a2,t0,100f4 <exit>
   100cc:	00200393          	addi	t2,zero,2
   100d0:	00430313          	addi	t1,t1,4

000100d4 <fib_loop>:
   100d4:	0253d063          	bge	t2,t0,100f4 <exit>
   100d8:	00940533          	add	a0,s0,s1
   100dc:	00a32023          	sw	a0,0(t1)
   100e0:	00048413          	addi	s0,s1,0
   100e4:	00050493          	addi	s1,a0,0
   100e8:	00430313          	addi	t1,t1,4
   100ec:	00138393          	addi	t2,t2,1
   100f0:	fe5ff06f          	jal	zero,100d4 <fib_loop>

000100f4 <exit>:
   100f4:	05d00893          	addi	a7,zero,93
   100f8:	00000513          	addi	a0,zero,0
   100fc:	00000073          	ecall

fibonacci.elf      檔案格式 elf32-littleriscv


.text 區段的反組譯：

00010094 <_start>:
   10094:	00001137          	lui	sp,0x1
   10098:	00001317          	auipc	t1,0x1
   1009c:	05430313          	addi	t1,t1,84 # 110ec <__DATA_BEGIN__>
   100a0:	00000413          	addi	s0,zero,0
   100a4:	00832023          	sw	s0,0(t1)
   100a8:	00430313          	addi	t1,t1,4
   100ac:	00100493          	addi	s1,zero,1
   100b0:	00932023          	sw	s1,0(t1)
   100b4:	00200393          	addi	t2,zero,2
   100b8:	00430313          	addi	t1,t1,4

000100bc <fib_loop>:
   100bc:	01400293          	addi	t0,zero,20
   100c0:	0253d063          	bge	t2,t0,100e0 <exit>
   100c4:	00940533          	add	a0,s0,s1
   100c8:	00a32023          	sw	a0,0(t1)
   100cc:	00048413          	addi	s0,s1,0
   100d0:	00050493          	addi	s1,a0,0
   100d4:	00430313          	addi	t1,t1,4
   100d8:	00138393          	addi	t2,t2,1
   100dc:	fe1ff06f          	jal	zero,100bc <fib_loop>

000100e0 <exit>:
   100e0:	05d00893          	addi	a7,zero,93
   100e4:	00000513          	addi	a0,zero,0
   100e8:	00000073          	ecall

fibonacci.elf      檔案格式 elf32-littleriscv


.text 區段的反組譯：

00010094 <_start>:
   10094:	00001137          	lui	sp,0x1
   10098:	00001317          	auipc	t1,0x1
   1009c:	05430313          	addi	t1,t1,84 # 110ec <__DATA_BEGIN__>
   100a0:	00000413          	addi	s0,zero,0
   100a4:	00832023          	sw	s0,0(t1)
   100a8:	00430313          	addi	t1,t1,4
   100ac:	00100493          	addi	s1,zero,1
   100b0:	00932023          	sw	s1,0(t1)
   100b4:	00200393          	addi	t2,zero,2
   100b8:	00430313          	addi	t1,t1,4

000100bc <fib_loop>:
   100bc:	01500293          	addi	t0,zero,21
   100c0:	0253d063          	bge	t2,t0,100e0 <exit>
   100c4:	00940533          	add	a0,s0,s1
   100c8:	00a32023          	sw	a0,0(t1)
   100cc:	00048413          	addi	s0,s1,0
   100d0:	00050493          	addi	s1,a0,0
   100d4:	00430313          	addi	t1,t1,4
   100d8:	00138393          	addi	t2,t2,1
   100dc:	fe1ff06f          	jal	zero,100bc <fib_loop>

000100e0 <exit>:
   100e0:	05d00893          	addi	a7,zero,93
   100e4:	00000513          	addi	a0,zero,0
   100e8:	00000073          	ecall
